; Function Attrs: nofree norecurse nosync nounwind memory(read, argmem: readwrite, inaccessiblemem: none) uwtable
define void @Str_MuxCreate(ptr noundef writeonly captures(none) initializes((12, 20)) %0, ptr noundef readonly captures(none) %1, i32 noundef %2, i32 noundef %3, ptr noundef readonly captures(none) %4, i32 noundef %5) local_unnamed_addr #12 {
  %7 = add i32 %3, 1
  %8 = sext i32 %7 to i64
  %9 = shl nsw i64 %8, 6
  tail call void @llvm.memset.p0.i64(ptr align 4 %0, i8 0, i64 %9, i1 false)
  %10 = getelementptr inbounds nuw i8, ptr %0, i64 12
  store i32 %5, ptr %10, align 4, !tbaa !142
  %11 = getelementptr inbounds nuw i8, ptr %0, i64 16
  store i32 1, ptr %11, align 4, !tbaa !136
  %.not66 = icmp slt i32 %3, 1
  br i1 %.not66, label %._crit_edge, label %.lr.ph

.lr.ph:                                           ; preds = %6
  %12 = add nsw i32 %3, %2
  %13 = getelementptr i8, ptr %1, i64 8
  %.val58 = load ptr, ptr %13, align 8, !tbaa !33
  %14 = getelementptr i8, ptr %1, i64 24
  %.val62 = load ptr, ptr %14, align 8, !tbaa !36
  %15 = getelementptr i8, ptr %4, i64 8
  %16 = sext i32 %12 to i64
  %wide.trip.count = zext i32 %7 to i64
  br label %17

17:                                               ; preds = %.lr.ph, %51
  %indvars.iv70 = phi i64 [ 1, %.lr.ph ], [ %indvars.iv.next71, %51 ]
  %.068 = phi i32 [ 0, %.lr.ph ], [ %.2, %51 ]
  %18 = getelementptr inbounds nuw %struct.Str_Mux_t_, ptr %0, i64 %indvars.iv70
  %19 = trunc nuw nsw i64 %indvars.iv70 to i32
  store i32 %19, ptr %18, align 4, !tbaa !139
  %20 = getelementptr inbounds nuw i8, ptr %18, i64 12
  store i32 %5, ptr %20, align 4, !tbaa !142
  %21 = getelementptr inbounds nuw i8, ptr %18, i64 8
  store i32 -1, ptr %21, align 4, !tbaa !143
  %22 = getelementptr inbounds nuw i8, ptr %18, i64 4
  store i32 -1, ptr %22, align 4, !tbaa !144
  %23 = sub nsw i64 %16, %indvars.iv70
  %24 = getelementptr %struct.Str_Obj_t_, ptr %.val58, i64 %23, i32 1
  %.val63 = load i32, ptr %24, align 4, !tbaa !37
  %25 = getelementptr inbounds nuw i8, ptr %18, i64 16
  %26 = sext i32 %.val63 to i64
  %invariant.gep = getelementptr i32, ptr %.val62, i64 %26
  br label %27

27:                                               ; preds = %17, %50
  %indvars.iv = phi i64 [ 0, %17 ], [ %indvars.iv.next, %50 ]
  %.165 = phi i32 [ %.068, %17 ], [ %.2, %50 ]
  %gep = getelementptr i32, ptr %invariant.gep, i64 %indvars.iv
  %28 = load i32, ptr %gep, align 4, !tbaa !38
  %29 = and i32 %28, 1
  %30 = getelementptr inbounds nuw [3 x %struct.Str_Edg_t_], ptr %25, i64 0, i64 %indvars.iv
  %31 = getelementptr inbounds nuw i8, ptr %30, i64 4
  store i32 %29, ptr %31, align 4, !tbaa !141
  %32 = load i32, ptr %gep, align 4, !tbaa !38
  %33 = ashr i32 %32, 1
  %.not53 = icmp slt i32 %33, %2
  br i1 %.not53, label %36, label %34

34:                                               ; preds = %27
  %35 = sub nsw i32 %12, %33
  store i32 %35, ptr %30, align 4, !tbaa !136
  br label %50

36:                                               ; preds = %27
  %37 = add nsw i32 %.165, 1
  %38 = sub nsw i32 0, %.165
  store i32 %38, ptr %30, align 4, !tbaa !136
  %39 = load i32, ptr %gep, align 4, !tbaa !38
  %40 = ashr i32 %39, 1
  %41 = sext i32 %40 to i64
  %42 = getelementptr inbounds %struct.Str_Obj_t_, ptr %.val58, i64 %41, i32 3
  %43 = load i32, ptr %42, align 4, !tbaa !34
  %44 = getelementptr inbounds nuw i8, ptr %30, i64 12
  store i32 %43, ptr %44, align 4, !tbaa !145
  %45 = ashr i32 %43, 1
  %.val = load ptr, ptr %15, align 8, !tbaa !36
  %46 = sext i32 %45 to i64
  %47 = getelementptr inbounds i32, ptr %.val, i64 %46
  %48 = load i32, ptr %47, align 4, !tbaa !38
  %49 = getelementptr inbounds nuw i8, ptr %30, i64 8
  store i32 %48, ptr %49, align 4, !tbaa !138
  br label %50

50:                                               ; preds = %34, %36
  %.2 = phi i32 [ %.165, %34 ], [ %37, %36 ]
  %indvars.iv.next = add nuw nsw i64 %indvars.iv, 1
  %exitcond.not = icmp eq i64 %indvars.iv.next, 3
  br i1 %exitcond.not, label %51, label %27, !llvm.loop !146

51:                                               ; preds = %50
  %indvars.iv.next71 = add nuw nsw i64 %indvars.iv70, 1
  %exitcond73.not = icmp eq i64 %indvars.iv.next71, %wide.trip.count
  br i1 %exitcond73.not, label %._crit_edge, label %17, !llvm.loop !147

._crit_edge:                                      ; preds = %51, %6
  ret void
}